; Function Attrs: mustprogress uwtable
define dso_local noundef ptr @alias_open(ptr noundef %0, ptr noundef %1, ptr noundef %2, i32 noundef %3, ptr noundef %4, ptr noundef %5) local_unnamed_addr #7 personality ptr @__gxx_personality_v0 {
  %7 = tail call noalias noundef nonnull dereferenceable(120) ptr @_Znwm(i64 noundef 120) #36
  invoke void @_ZN18StringBaseResourceC2EP7SRBRootPKcaPKDsiPK7UStringR10UErrorCode(ptr noundef nonnull align 8 dereferenceable(120) %7, ptr noundef %0, ptr noundef %1, i8 noundef signext 3, ptr noundef %2, i32 noundef %3, ptr noundef %4, ptr noundef nonnull align 4 dereferenceable(4) %5)
          to label %8 unwind label %18

8:                                                ; preds = %6
  store ptr getelementptr inbounds nuw inrange(-16, 64) (i8, ptr @_ZTV13AliasResource, i64 16), ptr %7, align 8, !tbaa !9
  %9 = load i32, ptr %5, align 4
  %10 = icmp sgt i32 %9, 0
  br i1 %10, label %11, label %_ZN6icu_7712LocalPointerI9SResourceED2Ev.exit

11:                                               ; preds = %8
  store ptr getelementptr inbounds nuw inrange(-16, 64) (i8, ptr @_ZTV18StringBaseResource, i64 16), ptr %7, align 8, !tbaa !9
  %12 = getelementptr inbounds nuw i8, ptr %7, i64 56
  tail call void @_ZN6icu_7713UnicodeStringD1Ev(ptr noundef nonnull align 8 dereferenceable(64) %12) #34
  store ptr getelementptr inbounds nuw inrange(-16, 64) (i8, ptr @_ZTV9SResource, i64 16), ptr %7, align 8, !tbaa !9
  %13 = getelementptr inbounds nuw i8, ptr %7, i64 40
  invoke void @ustr_deinit(ptr noundef nonnull %13)
          to label %_ZN13AliasResourceD0Ev.exit unwind label %14

14:                                               ; preds = %11
  %15 = landingpad { ptr, i32 }
          catch ptr null
  %16 = extractvalue { ptr, i32 } %15, 0
  tail call void @__clang_call_terminate(ptr %16) #31
  unreachable

_ZN13AliasResourceD0Ev.exit:                      ; preds = %11
  tail call void @_ZdlPvm(ptr noundef nonnull align 8 dereferenceable(56) %7, i64 noundef 120) #35
  br label %_ZN6icu_7712LocalPointerI9SResourceED2Ev.exit

_ZN6icu_7712LocalPointerI9SResourceED2Ev.exit:    ; preds = %8, %_ZN13AliasResourceD0Ev.exit
  %17 = phi ptr [ null, %_ZN13AliasResourceD0Ev.exit ], [ %7, %8 ]
  ret ptr %17

18:                                               ; preds = %6
  %19 = landingpad { ptr, i32 }
          cleanup
  tail call void @_ZdlPvm(ptr noundef nonnull %7, i64 noundef 120) #35
  resume { ptr, i32 } %19
}